; Function Attrs: mustprogress nofree norecurse nosync nounwind willreturn memory(argmem: read) uwtable
define internal nonnull ptr @ltp_conv_get_filter_type(ptr noundef readonly captures(none) %0, i32 noundef %1) #2 {
  %3 = getelementptr inbounds nuw i8, ptr %0, i64 32
  %4 = load i32, ptr %3, align 8
  %cond = icmp eq i32 %4, 7
  %switch = icmp ult i32 %1, 3
  %or.cond = and i1 %switch, %cond
  %.0 = select i1 %or.cond, ptr @.str.9, ptr @.str.203
  ret ptr %.0
}